; Function Attrs: nounwind uwtable
define internal range(i32 -1, 2) i32 @_sort_job_by_time_left(ptr noundef readonly captures(none) %0, ptr noundef readonly captures(none) %1) #0 {
  %.val = load ptr, ptr %0, align 8
  %3 = getelementptr i8, ptr %.val, i64 8
  %.val.val = load ptr, ptr %3, align 8
  %4 = load ptr, ptr %1, align 8
  %5 = getelementptr inbounds nuw i8, ptr %4, i64 8
  %6 = load ptr, ptr %5, align 8
  %7 = getelementptr inbounds nuw i8, ptr %.val.val, i64 848
  %8 = load i32, ptr %7, align 8
  %switch = icmp ugt i32 %8, -3
  br i1 %switch, label %14, label %9

9:                                                ; preds = %2
  %10 = mul i32 %8, 60
  %11 = zext i32 %10 to i64
  %12 = tail call i64 @job_time_used(ptr noundef nonnull %.val.val) #11
  %13 = sub nsw i64 %11, %12
  br label %14

14:                                               ; preds = %2, %9
  %.05 = phi i64 [ %13, %9 ], [ 4294967295, %2 ]
  %15 = getelementptr inbounds nuw i8, ptr %6, i64 848
  %16 = load i32, ptr %15, align 8
  %switch11 = icmp ugt i32 %16, -3
  br i1 %switch11, label %22, label %17

17:                                               ; preds = %14
  %18 = mul i32 %16, 60
  %19 = zext i32 %18 to i64
  %20 = tail call i64 @job_time_used(ptr noundef nonnull %6) #11
  %21 = sub nsw i64 %19, %20
  br label %22

22:                                               ; preds = %14, %17
  %.0 = phi i64 [ %21, %17 ], [ 4294967295, %14 ]
  %.0.i = tail call range(i32 -1, 2) i32 @llvm.scmp.i32.i64(i64 %.05, i64 %.0)
  %.b9 = load i1, ptr @reverse_order, align 1
  %23 = sub nsw i32 0, %.0.i
  %spec.select = select i1 %.b9, i32 %23, i32 %.0.i
  ret i32 %spec.select
}